; Function Attrs: mustprogress uwtable
define dso_local void @_ZN14cmUVPipeBuffer6UVDataEP11uv_stream_slPK8uv_buf_t(ptr nocapture noundef readonly %0, i64 noundef %1, ptr nocapture noundef readonly %2) #0 align 2 personality ptr @__gxx_personality_v0 {
  %4 = alloca i64, align 8
  %5 = alloca %class.cmRange, align 8
  %6 = alloca %"class.std::function.0", align 8
  %7 = load ptr, ptr %0, align 8
  %8 = icmp sgt i64 %1, 0
  br i1 %8, label %9, label %20

9:                                                ; preds = %3
  %10 = load ptr, ptr %2, align 8
  %.not = icmp eq ptr %10, null
  br i1 %.not, label %_ZNSt8functionIFvlEED2Ev.exit, label %11

11:                                               ; preds = %9
  %12 = getelementptr inbounds i8, ptr %10, i64 %1
  call void @llvm.lifetime.start.p0(i64 16, ptr nonnull %5)
  store ptr %10, ptr %5, align 8
  %13 = getelementptr inbounds i8, ptr %5, i64 8
  store ptr %12, ptr %13, align 8
  %14 = getelementptr inbounds i8, ptr %7, i64 56
  %15 = load ptr, ptr %14, align 8
  %.not.i.i = icmp eq ptr %15, null
  br i1 %.not.i.i, label %16, label %_ZNKSt8functionIFv7cmRangeIPKcEEEclES3_.exit

16:                                               ; preds = %11
  tail call void @_ZSt25__throw_bad_function_callv() #21
  unreachable

_ZNKSt8functionIFv7cmRangeIPKcEEEclES3_.exit:     ; preds = %11
  %17 = getelementptr inbounds i8, ptr %7, i64 40
  %18 = getelementptr inbounds i8, ptr %7, i64 64
  %19 = load ptr, ptr %18, align 8
  call void %19(ptr noundef nonnull align 8 dereferenceable(16) %17, ptr noundef nonnull align 8 dereferenceable(16) %5)
  call void @llvm.lifetime.end.p0(i64 16, ptr nonnull %5)
  br label %_ZNSt8functionIFvlEED2Ev.exit

20:                                               ; preds = %3
  %21 = icmp slt i64 %1, 0
  br i1 %21, label %22, label %_ZNSt8functionIFvlEED2Ev.exit

22:                                               ; preds = %20
  %23 = getelementptr inbounds i8, ptr %7, i64 72
  call void @llvm.memcpy.p0.p0.i64(ptr noundef nonnull align 8 dereferenceable(16) %6, ptr noundef nonnull align 8 dereferenceable(16) %23, i64 16, i1 false)
  tail call void @llvm.memset.p0.i64(ptr noundef nonnull align 8 dereferenceable(16) %23, i8 0, i64 16, i1 false)
  %24 = getelementptr inbounds i8, ptr %6, i64 16
  %25 = getelementptr inbounds i8, ptr %7, i64 88
  %26 = load ptr, ptr %25, align 8
  store ptr %26, ptr %24, align 8
  store ptr null, ptr %25, align 8
  %27 = getelementptr inbounds i8, ptr %6, i64 24
  %28 = getelementptr inbounds i8, ptr %7, i64 96
  %29 = load ptr, ptr %28, align 8
  store ptr %29, ptr %27, align 8
  store ptr null, ptr %28, align 8
  invoke void @_ZN14cmUVPipeBuffer5resetEv(ptr noundef nonnull align 8 dereferenceable(104) %7)
          to label %30 unwind label %42

30:                                               ; preds = %22
  %31 = icmp eq i64 %1, -4095
  %32 = select i1 %31, i64 0, i64 %1
  call void @llvm.lifetime.start.p0(i64 8, ptr nonnull %4)
  store i64 %32, ptr %4, align 8
  %.not.i.i14 = icmp eq ptr %26, null
  br i1 %.not.i.i14, label %33, label %34

33:                                               ; preds = %30
  invoke void @_ZSt25__throw_bad_function_callv() #21
          to label %.noexc unwind label %42

.noexc:                                           ; preds = %33
  unreachable

34:                                               ; preds = %30
  invoke void %29(ptr noundef nonnull align 8 dereferenceable(16) %6, ptr noundef nonnull align 8 dereferenceable(8) %4)
          to label %35 unwind label %42

35:                                               ; preds = %34
  call void @llvm.lifetime.end.p0(i64 8, ptr nonnull %4)
  %36 = load ptr, ptr %24, align 8
  %.not.i.i16 = icmp eq ptr %36, null
  br i1 %.not.i.i16, label %_ZNSt8functionIFvlEED2Ev.exit, label %37

37:                                               ; preds = %35
  %38 = invoke noundef zeroext i1 %36(ptr noundef nonnull align 8 dereferenceable(16) %6, ptr noundef nonnull align 8 dereferenceable(16) %6, i32 noundef 3)
          to label %_ZNSt8functionIFvlEED2Ev.exit unwind label %39

39:                                               ; preds = %37
  %40 = landingpad { ptr, i32 }
          catch ptr null
  %41 = extractvalue { ptr, i32 } %40, 0
  call void @__clang_call_terminate(ptr %41) #19
  unreachable

42:                                               ; preds = %34, %33, %22
  %43 = landingpad { ptr, i32 }
          cleanup
  %44 = load ptr, ptr %24, align 8
  %.not.i.i17 = icmp eq ptr %44, null
  br i1 %.not.i.i17, label %_ZNSt8functionIFvlEED2Ev.exit18, label %45

45:                                               ; preds = %42
  %46 = invoke noundef zeroext i1 %44(ptr noundef nonnull align 8 dereferenceable(16) %6, ptr noundef nonnull align 8 dereferenceable(16) %6, i32 noundef 3)
          to label %_ZNSt8functionIFvlEED2Ev.exit18 unwind label %47

47:                                               ; preds = %45
  %48 = landingpad { ptr, i32 }
          catch ptr null
  %49 = extractvalue { ptr, i32 } %48, 0
  call void @__clang_call_terminate(ptr %49) #19
  unreachable

_ZNSt8functionIFvlEED2Ev.exit18:                  ; preds = %42, %45
  resume { ptr, i32 } %43

_ZNSt8functionIFvlEED2Ev.exit:                    ; preds = %37, %35, %20, %9, %_ZNKSt8functionIFv7cmRangeIPKcEEEclES3_.exit
  ret void
}